; Function Attrs: mustprogress uwtable
define noundef i64 @_ZNK6google8protobuf13SourceContext12ByteSizeLongEv(ptr noundef nonnull align 8 dereferenceable(32) %this) unnamed_addr #3 align 2 personality ptr @__gxx_personality_v0 {
entry:
  %0 = getelementptr inbounds i8, ptr %this, i64 16
  %1 = load ptr, ptr %0, align 8
  %2 = ptrtoint ptr %1 to i64
  %and.i.i = and i64 %2, -4
  %3 = inttoptr i64 %and.i.i to ptr
  %call2 = tail call noundef zeroext i1 @_ZNKSt7__cxx1112basic_stringIcSt11char_traitsIcESaIcEE5emptyEv(ptr noundef nonnull align 8 dereferenceable(32) %3) #15
  br i1 %call2, label %if.end, label %if.then

if.then:                                          ; preds = %entry
  %4 = load ptr, ptr %0, align 8
  %5 = ptrtoint ptr %4 to i64
  %and.i.i2 = and i64 %5, -4
  %6 = inttoptr i64 %and.i.i2 to ptr
  %call.i = tail call noundef i64 @_ZNKSt7__cxx1112basic_stringIcSt11char_traitsIcESaIcEE4sizeEv(ptr noundef nonnull align 8 dereferenceable(32) %6) #15
  %conv.i.i = trunc i64 %call.i to i32
  %or.i.i.i = or i32 %conv.i.i, 1
  %7 = tail call noundef i32 @llvm.ctlz.i32(i32 %or.i.i.i, i1 true), !range !4
  %sub.i.i.i = xor i32 %7, 31
  %mul.i.i.i = mul nuw nsw i32 %sub.i.i.i, 9
  %add.i.i.i = add nuw nsw i32 %mul.i.i.i, 73
  %div1.i.i.i = lshr i32 %add.i.i.i, 6
  %conv.i.i.i = zext nneg i32 %div1.i.i.i to i64
  %add.i.i = add i64 %call.i, 1
  %add = add i64 %add.i.i, %conv.i.i.i
  br label %if.end

if.end:                                           ; preds = %if.then, %entry
  %total_size.0 = phi i64 [ 0, %entry ], [ %add, %if.then ]
  %_cached_size_ = getelementptr inbounds i8, ptr %this, i64 24
  %call6 = tail call noundef i64 @_ZNK6google8protobuf7Message29MaybeComputeUnknownFieldsSizeEmPNS0_8internal10CachedSizeE(ptr noundef nonnull align 8 dereferenceable(16) %this, i64 noundef %total_size.0, ptr noundef nonnull %_cached_size_)
  ret i64 %call6
}